target datalayout = "e-m:e-p270:32:32-p271:32:32-p272:64:64-i64:64-i128:128-f80:128-n8:16:32:64-S128"
target triple = "x86_64-pc-linux-gnu"

%struct.malloc_state = type { i32, i32, i64, i64, ptr, ptr, ptr, i64, i64, i64, [66 x ptr], [32 x ptr], i64, i64, i64, i32, i32, %struct.malloc_segment, ptr, i64 }
%struct.malloc_segment = type { ptr, i64, ptr, i32 }
%struct.malloc_chunk = type { i64, i64, ptr, ptr }

@_gm_ = internal global %struct.malloc_state zeroinitializer, align 8

; Function Attrs: nounwind uwtable
define hidden ptr @mspace_calloc(ptr noundef %0, i64 noundef %1, i64 noundef %2) #0 {
  %4 = alloca ptr, align 8
  %5 = alloca i64, align 8
  %6 = alloca i64, align 8
  %7 = alloca ptr, align 8
  %8 = alloca i64, align 8
  %9 = alloca ptr, align 8
  store ptr %0, ptr %4, align 8, !tbaa !16
  store i64 %1, ptr %5, align 8, !tbaa !3
  store i64 %2, ptr %6, align 8, !tbaa !3
  call void @llvm.lifetime.start.p0(i64 8, ptr %7) #9
  call void @llvm.lifetime.start.p0(i64 8, ptr %8) #9
  store i64 0, ptr %8, align 8, !tbaa !3
  call void @llvm.lifetime.start.p0(i64 8, ptr %9) #9
  %10 = load ptr, ptr %4, align 8, !tbaa !16
  store ptr %10, ptr %9, align 8, !tbaa !16
  %11 = load i64, ptr %5, align 8, !tbaa !3
  %12 = icmp ne i64 %11, 0
  br i1 %12, label %13, label %30

13:                                               ; preds = %3
  %14 = load i64, ptr %5, align 8, !tbaa !3
  %15 = load i64, ptr %6, align 8, !tbaa !3
  %16 = mul i64 %14, %15
  store i64 %16, ptr %8, align 8, !tbaa !3
  %17 = load i64, ptr %5, align 8, !tbaa !3
  %18 = load i64, ptr %6, align 8, !tbaa !3
  %19 = or i64 %17, %18
  %20 = and i64 %19, -65536
  %21 = icmp ne i64 %20, 0
  br i1 %21, label %22, label %29

22:                                               ; preds = %13
  %23 = load i64, ptr %8, align 8, !tbaa !3
  %24 = load i64, ptr %5, align 8, !tbaa !3
  %25 = udiv i64 %23, %24
  %26 = load i64, ptr %6, align 8, !tbaa !3
  %27 = icmp ne i64 %25, %26
  br i1 %27, label %28, label %29

28:                                               ; preds = %22
  store i64 -1, ptr %8, align 8, !tbaa !3
  br label %29

29:                                               ; preds = %28, %22, %13
  br label %30

30:                                               ; preds = %29, %3
  %31 = load ptr, ptr %9, align 8, !tbaa !16
  %32 = icmp eq ptr %31, @_gm_
  br i1 %32, label %33, label %36

33:                                               ; preds = %30
  %34 = load i64, ptr %8, align 8, !tbaa !3
  %35 = call ptr @dlmalloc(i64 noundef %34)
  br label %40

36:                                               ; preds = %30
  %37 = load ptr, ptr %9, align 8, !tbaa !16
  %38 = load i64, ptr %8, align 8, !tbaa !3
  %39 = call ptr @mspace_malloc(ptr noundef %37, i64 noundef %38)
  br label %40

40:                                               ; preds = %36, %33
  %41 = phi ptr [ %35, %33 ], [ %39, %36 ]
  store ptr %41, ptr %7, align 8, !tbaa !16
  %42 = load ptr, ptr %7, align 8, !tbaa !16
  %43 = icmp ne ptr %42, null
  br i1 %43, label %44, label %54

44:                                               ; preds = %40
  %45 = load ptr, ptr %7, align 8, !tbaa !16
  %46 = getelementptr inbounds i8, ptr %45, i64 -16
  %47 = getelementptr inbounds nuw %struct.malloc_chunk, ptr %46, i32 0, i32 1
  %48 = load i64, ptr %47, align 8, !tbaa !21
  %49 = and i64 %48, 3
  %50 = icmp eq i64 %49, 0
  br i1 %50, label %54, label %51

51:                                               ; preds = %44
  %52 = load ptr, ptr %7, align 8, !tbaa !16
  %53 = load i64, ptr %8, align 8, !tbaa !3
  call void @llvm.memset.p0.i64(ptr align 1 %52, i8 0, i64 %53, i1 false)
  br label %54

54:                                               ; preds = %51, %44, %40
  %55 = load ptr, ptr %7, align 8, !tbaa !16
  call void @llvm.lifetime.end.p0(i64 8, ptr %9) #9
  call void @llvm.lifetime.end.p0(i64 8, ptr %8) #9
  call void @llvm.lifetime.end.p0(i64 8, ptr %7) #9
  ret ptr %55
}