; Function Attrs: nounwind uwtable
define hidden ptr @mspace_calloc(ptr noundef %0, i64 noundef %1, i64 noundef %2) local_unnamed_addr #0 {
  %.not = icmp eq i64 %1, 0
  br i1 %.not, label %7, label %4

4:                                                ; preds = %3
  %mul = tail call { i64, i1 } @llvm.umul.with.overflow.i64(i64 %1, i64 %2)
  %mul.val = extractvalue { i64, i1 } %mul, 0
  %5 = or i64 %2, %1
  %.not20 = icmp ult i64 %5, 65536
  br i1 %.not20, label %7, label %6

6:                                                ; preds = %4
  %mul.ov = extractvalue { i64, i1 } %mul, 1
  %spec.store.select = select i1 %mul.ov, i64 -1, i64 %mul.val
  br label %7

7:                                                ; preds = %6, %4, %3
  %.0 = phi i64 [ %spec.store.select, %6 ], [ %mul.val, %4 ], [ 0, %3 ]
  %8 = icmp eq ptr %0, @_gm_
  br i1 %8, label %9, label %11

9:                                                ; preds = %7
  %10 = tail call ptr @dlmalloc(i64 noundef %.0)
  br label %13

11:                                               ; preds = %7
  %12 = tail call ptr @mspace_malloc(ptr noundef %0, i64 noundef %.0)
  br label %13

13:                                               ; preds = %11, %9
  %14 = phi ptr [ %10, %9 ], [ %12, %11 ]
  %.not22 = icmp eq ptr %14, null
  br i1 %.not22, label %21, label %15

15:                                               ; preds = %13
  %16 = getelementptr inbounds i8, ptr %14, i64 -8
  %17 = load i64, ptr %16, align 8, !tbaa !23
  %18 = and i64 %17, 3
  %19 = icmp eq i64 %18, 0
  br i1 %19, label %21, label %20

20:                                               ; preds = %15
  tail call void @llvm.memset.p0.i64(ptr nonnull align 1 %14, i8 0, i64 %.0, i1 false)
  br label %21

21:                                               ; preds = %20, %15, %13
  ret ptr %14
}